target datalayout = "e-m:e-p270:32:32-p271:32:32-p272:64:64-i64:64-i128:128-f80:128-n8:16:32:64-S128"
target triple = "x86_64-pc-linux-gnu"

@.str.29 = private unnamed_addr constant [9 x i8] c"tostring\00", align 1
@.str.50 = private unnamed_addr constant [43 x i8] c"'tostring' must return a string to 'print'\00", align 1
@.str.51 = private unnamed_addr constant [2 x i8] c"\09\00", align 1
@stdout = external global ptr, align 8
@.str.52 = private unnamed_addr constant [2 x i8] c"\0A\00", align 1

; Function Attrs: nounwind uwtable
define internal i32 @luaB_print(ptr noundef %0) #0 {
  %2 = alloca i32, align 4
  %3 = alloca ptr, align 8
  %4 = alloca i32, align 4
  %5 = alloca i32, align 4
  %6 = alloca ptr, align 8
  %7 = alloca i32, align 4
  store ptr %0, ptr %3, align 8, !tbaa !4
  call void @llvm.lifetime.start.p0(i64 4, ptr %4) #5
  %8 = load ptr, ptr %3, align 8, !tbaa !4
  %9 = call i32 @lua_gettop(ptr noundef %8)
  store i32 %9, ptr %4, align 4, !tbaa !12
  call void @llvm.lifetime.start.p0(i64 4, ptr %5) #5
  %10 = load ptr, ptr %3, align 8, !tbaa !4
  call void @lua_getfield(ptr noundef %10, i32 noundef -10002, ptr noundef @.str.29)
  store i32 1, ptr %5, align 4, !tbaa !12
  br label %11

11:                                               ; preds = %41, %1
  %12 = load i32, ptr %5, align 4, !tbaa !12
  %13 = load i32, ptr %4, align 4, !tbaa !12
  %14 = icmp sle i32 %12, %13
  br i1 %14, label %15, label %44

15:                                               ; preds = %11
  call void @llvm.lifetime.start.p0(i64 8, ptr %6) #5
  %16 = load ptr, ptr %3, align 8, !tbaa !4
  call void @lua_pushvalue(ptr noundef %16, i32 noundef -1)
  %17 = load ptr, ptr %3, align 8, !tbaa !4
  %18 = load i32, ptr %5, align 4, !tbaa !12
  call void @lua_pushvalue(ptr noundef %17, i32 noundef %18)
  %19 = load ptr, ptr %3, align 8, !tbaa !4
  call void @lua_call(ptr noundef %19, i32 noundef 1, i32 noundef 1)
  %20 = load ptr, ptr %3, align 8, !tbaa !4
  %21 = call ptr @lua_tolstring(ptr noundef %20, i32 noundef -1, ptr noundef null)
  store ptr %21, ptr %6, align 8, !tbaa !9
  %22 = load ptr, ptr %6, align 8, !tbaa !9
  %23 = icmp eq ptr %22, null
  br i1 %23, label %24, label %27

24:                                               ; preds = %15
  %25 = load ptr, ptr %3, align 8, !tbaa !4
  %26 = call i32 (ptr, ptr, ...) @luaL_error(ptr noundef %25, ptr noundef @.str.50)
  store i32 %26, ptr %2, align 4
  store i32 1, ptr %7, align 4
  br label %38

27:                                               ; preds = %15
  %28 = load i32, ptr %5, align 4, !tbaa !12
  %29 = icmp sgt i32 %28, 1
  br i1 %29, label %30, label %33

30:                                               ; preds = %27
  %31 = load ptr, ptr @stdout, align 8, !tbaa !16
  %32 = call i32 @fputs(ptr noundef @.str.51, ptr noundef %31)
  br label %33

33:                                               ; preds = %30, %27
  %34 = load ptr, ptr %6, align 8, !tbaa !9
  %35 = load ptr, ptr @stdout, align 8, !tbaa !16
  %36 = call i32 @fputs(ptr noundef %34, ptr noundef %35)
  %37 = load ptr, ptr %3, align 8, !tbaa !4
  call void @lua_settop(ptr noundef %37, i32 noundef -2)
  store i32 0, ptr %7, align 4
  br label %38

38:                                               ; preds = %33, %24
  call void @llvm.lifetime.end.p0(i64 8, ptr %6) #5
  %39 = load i32, ptr %7, align 4
  switch i32 %39, label %47 [
    i32 0, label %40
  ]

40:                                               ; preds = %38
  br label %41

41:                                               ; preds = %40
  %42 = load i32, ptr %5, align 4, !tbaa !12
  %43 = add nsw i32 %42, 1
  store i32 %43, ptr %5, align 4, !tbaa !12
  br label %11, !llvm.loop !18

44:                                               ; preds = %11
  %45 = load ptr, ptr @stdout, align 8, !tbaa !16
  %46 = call i32 @fputs(ptr noundef @.str.52, ptr noundef %45)
  store i32 0, ptr %2, align 4
  store i32 1, ptr %7, align 4
  br label %47

47:                                               ; preds = %44, %38
  call void @llvm.lifetime.end.p0(i64 4, ptr %5) #5
  call void @llvm.lifetime.end.p0(i64 4, ptr %4) #5
  %48 = load i32, ptr %2, align 4
  ret i32 %48
}