; Function Attrs: nounwind uwtable
define internal i32 @luaB_print(ptr noundef %0) #0 {
  %2 = tail call i32 @lua_gettop(ptr noundef %0) #8
  tail call void @lua_getfield(ptr noundef %0, i32 noundef -10002, ptr noundef nonnull @.str.29) #8
  %.not22 = icmp slt i32 %2, 1
  br i1 %.not22, label %._crit_edge, label %.lr.ph

.lr.ph:                                           ; preds = %1, %9
  %.01723 = phi i32 [ %12, %9 ], [ 1, %1 ]
  tail call void @lua_pushvalue(ptr noundef %0, i32 noundef -1) #8
  tail call void @lua_pushvalue(ptr noundef %0, i32 noundef %.01723) #8
  tail call void @lua_call(ptr noundef %0, i32 noundef 1, i32 noundef 1) #8
  %3 = tail call ptr @lua_tolstring(ptr noundef %0, i32 noundef -1, ptr noundef null) #8
  %.not20 = icmp eq ptr %3, null
  br i1 %.not20, label %.thread, label %5

.thread:                                          ; preds = %.lr.ph
  %4 = tail call i32 (ptr, ptr, ...) @luaL_error(ptr noundef %0, ptr noundef nonnull @.str.50) #8
  br label %14

5:                                                ; preds = %.lr.ph
  %6 = icmp samesign ugt i32 %.01723, 1
  br i1 %6, label %7, label %9

7:                                                ; preds = %5
  %8 = load ptr, ptr @stdout, align 8, !tbaa !10
  %fputc19 = tail call i32 @fputc(i32 9, ptr %8)
  br label %9

9:                                                ; preds = %7, %5
  %10 = load ptr, ptr @stdout, align 8, !tbaa !10
  %11 = tail call i32 @fputs(ptr noundef nonnull %3, ptr noundef %10)
  tail call void @lua_settop(ptr noundef %0, i32 noundef -2) #8
  %12 = add nuw i32 %.01723, 1
  %exitcond.not = icmp eq i32 %.01723, %2
  br i1 %exitcond.not, label %._crit_edge, label %.lr.ph, !llvm.loop !13

._crit_edge:                                      ; preds = %9, %1
  %13 = load ptr, ptr @stdout, align 8, !tbaa !10
  %fputc = tail call i32 @fputc(i32 10, ptr %13)
  br label %14

14:                                               ; preds = %.thread, %._crit_edge
  %.2 = phi i32 [ 0, %._crit_edge ], [ %4, %.thread ]
  ret i32 %.2
}